target datalayout = "e-m:e-p270:32:32-p271:32:32-p272:64:64-i64:64-i128:128-f80:128-n8:16:32:64-S128"
target triple = "x86_64-pc-linux-gnu"

%struct._e_guid_t = type { i32, i16, i16, [8 x i8] }
%struct._header_field_info = type { ptr, ptr, i32, i32, ptr, i64, ptr, i32, i32, i32, i32, ptr }
%struct._packet_info = type { ptr, ptr, i32, i32, %struct.nstime_t, %struct.nstime_t, %struct.nstime_t, i32, ptr, ptr, ptr, ptr, %struct._address, %struct._address, %struct._address, %struct._address, %struct._address, %struct._address, i32, ptr, i32, %struct.anon, i32, i32, i32, i32, ptr, i32, ptr, ptr, i16, i16, i32, i32, i16, i32, i32, ptr, ptr, ptr, i8, i8, i16, i16, i16, i32, i16, i16, ptr, ptr, ptr, ptr, ptr, i32 }
%struct.nstime_t = type { i64, i32 }
%struct._address = type { i32, i32, ptr, ptr }
%struct.anon = type { i8, [3 x i8] }

@.str.136 = private unnamed_addr constant [3 x i8] c"%s\00", align 1
@.str.137 = private unnamed_addr constant [7 x i8] c"[%u]: \00", align 1
@.str.138 = private unnamed_addr constant [3 x i8] c": \00", align 1
@.str.139 = private unnamed_addr constant [5 x i8] c"%s (\00", align 1
@.str.140 = private unnamed_addr constant [49 x i8] c"%08x-%04x-%04x-%02x%02x-%02x%02x%02x%02x%02x%02x\00", align 1
@.str.141 = private unnamed_addr constant [2 x i8] c")\00", align 1
@.str.142 = private unnamed_addr constant [11 x i8] c" %s[%u]=%s\00", align 1
@.str.143 = private unnamed_addr constant [4 x i8] c"???\00", align 1
@.str.144 = private unnamed_addr constant [7 x i8] c" %s=%s\00", align 1

; Function Attrs: nounwind uwtable
define i32 @dissect_dcom_append_UUID(ptr noundef %0, i32 noundef %1, ptr noundef %2, ptr noundef %3, ptr noundef %4, ptr noundef %5, i32 noundef %6, i32 noundef %7, ptr noundef %8) #0 {
  %10 = alloca ptr, align 8
  %11 = alloca i32, align 4
  %12 = alloca ptr, align 8
  %13 = alloca ptr, align 8
  %14 = alloca ptr, align 8
  %15 = alloca ptr, align 8
  %16 = alloca i32, align 4
  %17 = alloca i32, align 4
  %18 = alloca ptr, align 8
  %19 = alloca ptr, align 8
  %20 = alloca ptr, align 8
  %21 = alloca ptr, align 8
  store ptr %0, ptr %10, align 8
  store i32 %1, ptr %11, align 4
  store ptr %2, ptr %12, align 8
  store ptr %3, ptr %13, align 8
  store ptr %4, ptr %14, align 8
  store ptr %5, ptr %15, align 8
  store i32 %6, ptr %16, align 4
  store i32 %7, ptr %17, align 4
  store ptr %8, ptr %18, align 8
  %22 = load ptr, ptr %10, align 8
  %23 = load i32, ptr %11, align 4
  %24 = load ptr, ptr %12, align 8
  %25 = load ptr, ptr %14, align 8
  %26 = load ptr, ptr %15, align 8
  %27 = load i32, ptr %16, align 4
  %28 = load ptr, ptr %18, align 8
  %29 = call i32 @dissect_ndr_uuid_t(ptr noundef %22, i32 noundef %23, ptr noundef %24, ptr noundef null, ptr noundef %25, ptr noundef %26, i32 noundef %27, ptr noundef %28)
  store i32 %29, ptr %11, align 4
  %30 = load ptr, ptr %18, align 8
  %31 = load ptr, ptr %12, align 8
  %32 = getelementptr inbounds %struct._packet_info, ptr %31, i32 0, i32 50
  %33 = load ptr, ptr %32, align 8
  %34 = call ptr @guids_get_guid_name(ptr noundef %30, ptr noundef %33)
  store ptr %34, ptr %19, align 8
  %35 = load i32, ptr %16, align 4
  %36 = call ptr @proto_registrar_get_nth(i32 noundef %35)
  store ptr %36, ptr %21, align 8
  %37 = load ptr, ptr %13, align 8
  %38 = load i32, ptr %16, align 4
  %39 = load ptr, ptr %10, align 8
  %40 = load i32, ptr %11, align 4
  %41 = sub i32 %40, 16
  %42 = load ptr, ptr %18, align 8
  %43 = load ptr, ptr %21, align 8
  %44 = getelementptr inbounds %struct._header_field_info, ptr %43, i32 0, i32 0
  %45 = load ptr, ptr %44, align 8
  %46 = call ptr (ptr, i32, ptr, i32, i32, ptr, ptr, ...) @proto_tree_add_guid_format(ptr noundef %37, i32 noundef %38, ptr noundef %39, i32 noundef %41, i32 noundef 16, ptr noundef %42, ptr noundef @.str.136, ptr noundef %45)
  store ptr %46, ptr %20, align 8
  %47 = load i32, ptr %17, align 4
  %48 = icmp ne i32 %47, -1
  br i1 %48, label %49, label %52

49:                                               ; preds = %9
  %50 = load ptr, ptr %20, align 8
  %51 = load i32, ptr %17, align 4
  call void (ptr, ptr, ...) @proto_item_append_text(ptr noundef %50, ptr noundef @.str.137, i32 noundef %51)
  br label %54

52:                                               ; preds = %9
  %53 = load ptr, ptr %20, align 8
  call void (ptr, ptr, ...) @proto_item_append_text(ptr noundef %53, ptr noundef @.str.138)
  br label %54

54:                                               ; preds = %52, %49
  %55 = load ptr, ptr %19, align 8
  %56 = icmp ne ptr %55, null
  br i1 %56, label %57, label %60

57:                                               ; preds = %54
  %58 = load ptr, ptr %20, align 8
  %59 = load ptr, ptr %19, align 8
  call void (ptr, ptr, ...) @proto_item_append_text(ptr noundef %58, ptr noundef @.str.139, ptr noundef %59)
  br label %60

60:                                               ; preds = %57, %54
  %61 = load ptr, ptr %20, align 8
  %62 = load ptr, ptr %18, align 8
  %63 = getelementptr inbounds %struct._e_guid_t, ptr %62, i32 0, i32 0
  %64 = load i32, ptr %63, align 4
  %65 = load ptr, ptr %18, align 8
  %66 = getelementptr inbounds %struct._e_guid_t, ptr %65, i32 0, i32 1
  %67 = load i16, ptr %66, align 4
  %68 = zext i16 %67 to i32
  %69 = load ptr, ptr %18, align 8
  %70 = getelementptr inbounds %struct._e_guid_t, ptr %69, i32 0, i32 2
  %71 = load i16, ptr %70, align 2
  %72 = zext i16 %71 to i32
  %73 = load ptr, ptr %18, align 8
  %74 = getelementptr inbounds %struct._e_guid_t, ptr %73, i32 0, i32 3
  %75 = getelementptr [8 x i8], ptr %74, i64 0, i64 0
  %76 = load i8, ptr %75, align 4
  %77 = zext i8 %76 to i32
  %78 = load ptr, ptr %18, align 8
  %79 = getelementptr inbounds %struct._e_guid_t, ptr %78, i32 0, i32 3
  %80 = getelementptr [8 x i8], ptr %79, i64 0, i64 1
  %81 = load i8, ptr %80, align 1
  %82 = zext i8 %81 to i32
  %83 = load ptr, ptr %18, align 8
  %84 = getelementptr inbounds %struct._e_guid_t, ptr %83, i32 0, i32 3
  %85 = getelementptr [8 x i8], ptr %84, i64 0, i64 2
  %86 = load i8, ptr %85, align 2
  %87 = zext i8 %86 to i32
  %88 = load ptr, ptr %18, align 8
  %89 = getelementptr inbounds %struct._e_guid_t, ptr %88, i32 0, i32 3
  %90 = getelementptr [8 x i8], ptr %89, i64 0, i64 3
  %91 = load i8, ptr %90, align 1
  %92 = zext i8 %91 to i32
  %93 = load ptr, ptr %18, align 8
  %94 = getelementptr inbounds %struct._e_guid_t, ptr %93, i32 0, i32 3
  %95 = getelementptr [8 x i8], ptr %94, i64 0, i64 4
  %96 = load i8, ptr %95, align 4
  %97 = zext i8 %96 to i32
  %98 = load ptr, ptr %18, align 8
  %99 = getelementptr inbounds %struct._e_guid_t, ptr %98, i32 0, i32 3
  %100 = getelementptr [8 x i8], ptr %99, i64 0, i64 5
  %101 = load i8, ptr %100, align 1
  %102 = zext i8 %101 to i32
  %103 = load ptr, ptr %18, align 8
  %104 = getelementptr inbounds %struct._e_guid_t, ptr %103, i32 0, i32 3
  %105 = getelementptr [8 x i8], ptr %104, i64 0, i64 6
  %106 = load i8, ptr %105, align 2
  %107 = zext i8 %106 to i32
  %108 = load ptr, ptr %18, align 8
  %109 = getelementptr inbounds %struct._e_guid_t, ptr %108, i32 0, i32 3
  %110 = getelementptr [8 x i8], ptr %109, i64 0, i64 7
  %111 = load i8, ptr %110, align 1
  %112 = zext i8 %111 to i32
  call void (ptr, ptr, ...) @proto_item_append_text(ptr noundef %61, ptr noundef @.str.140, i32 noundef %64, i32 noundef %68, i32 noundef %72, i32 noundef %77, i32 noundef %82, i32 noundef %87, i32 noundef %92, i32 noundef %97, i32 noundef %102, i32 noundef %107, i32 noundef %112)
  %113 = load ptr, ptr %19, align 8
  %114 = icmp ne ptr %113, null
  br i1 %114, label %115, label %117

115:                                              ; preds = %60
  %116 = load ptr, ptr %20, align 8
  call void (ptr, ptr, ...) @proto_item_append_text(ptr noundef %116, ptr noundef @.str.141)
  br label %117

117:                                              ; preds = %115, %60
  %118 = load i32, ptr %17, align 4
  %119 = icmp ne i32 %118, -1
  br i1 %119, label %120, label %135

120:                                              ; preds = %117
  %121 = load ptr, ptr %12, align 8
  %122 = getelementptr inbounds %struct._packet_info, ptr %121, i32 0, i32 1
  %123 = load ptr, ptr %122, align 8
  %124 = load ptr, ptr %21, align 8
  %125 = getelementptr inbounds %struct._header_field_info, ptr %124, i32 0, i32 0
  %126 = load ptr, ptr %125, align 8
  %127 = load i32, ptr %17, align 4
  %128 = load ptr, ptr %19, align 8
  %129 = icmp ne ptr %128, null
  br i1 %129, label %130, label %132

130:                                              ; preds = %120
  %131 = load ptr, ptr %19, align 8
  br label %133

132:                                              ; preds = %120
  br label %133

133:                                              ; preds = %132, %130
  %134 = phi ptr [ %131, %130 ], [ @.str.143, %132 ]
  call void (ptr, i32, ptr, ...) @col_append_fstr(ptr noundef %123, i32 noundef 25, ptr noundef @.str.142, ptr noundef %126, i32 noundef %127, ptr noundef %134)
  br label %149

135:                                              ; preds = %117
  %136 = load ptr, ptr %12, align 8
  %137 = getelementptr inbounds %struct._packet_info, ptr %136, i32 0, i32 1
  %138 = load ptr, ptr %137, align 8
  %139 = load ptr, ptr %21, align 8
  %140 = getelementptr inbounds %struct._header_field_info, ptr %139, i32 0, i32 0
  %141 = load ptr, ptr %140, align 8
  %142 = load ptr, ptr %19, align 8
  %143 = icmp ne ptr %142, null
  br i1 %143, label %144, label %146

144:                                              ; preds = %135
  %145 = load ptr, ptr %19, align 8
  br label %147

146:                                              ; preds = %135
  br label %147

147:                                              ; preds = %146, %144
  %148 = phi ptr [ %145, %144 ], [ @.str.143, %146 ]
  call void (ptr, i32, ptr, ...) @col_append_fstr(ptr noundef %138, i32 noundef 25, ptr noundef @.str.144, ptr noundef %141, ptr noundef %148)
  br label %149

149:                                              ; preds = %147, %133
  %150 = load i32, ptr %11, align 4
  ret i32 %150
}