; Function Attrs: nounwind uwtable
define i32 @dissect_dcom_append_UUID(ptr noundef %0, i32 noundef %1, ptr noundef %2, ptr noundef %3, ptr noundef %4, ptr noundef %5, i32 noundef %6, i32 noundef %7, ptr noundef %8) local_unnamed_addr #1 {
  %10 = tail call i32 @dissect_ndr_uuid_t(ptr noundef %0, i32 noundef %1, ptr noundef %2, ptr noundef null, ptr noundef %4, ptr noundef %5, i32 noundef %6, ptr noundef %8) #11
  %11 = getelementptr inbounds nuw i8, ptr %2, i64 408
  %12 = load ptr, ptr %11, align 8
  %13 = tail call ptr @guids_get_guid_name(ptr noundef %8, ptr noundef %12) #11
  %14 = tail call ptr @proto_registrar_get_nth(i32 noundef %6) #11
  %15 = add i32 %10, -16
  %16 = load ptr, ptr %14, align 8
  %17 = tail call ptr (ptr, i32, ptr, i32, i32, ptr, ptr, ...) @proto_tree_add_guid_format(ptr noundef %3, i32 noundef %6, ptr noundef %0, i32 noundef %15, i32 noundef 16, ptr noundef %8, ptr noundef nonnull @.str.136, ptr noundef %16) #11
  %.not = icmp eq i32 %7, -1
  br i1 %.not, label %19, label %18

18:                                               ; preds = %9
  tail call void (ptr, ptr, ...) @proto_item_append_text(ptr noundef %17, ptr noundef nonnull @.str.137, i32 noundef %7) #11
  br label %20

19:                                               ; preds = %9
  tail call void (ptr, ptr, ...) @proto_item_append_text(ptr noundef %17, ptr noundef nonnull @.str.138) #11
  br label %20

20:                                               ; preds = %19, %18
  %.not48 = icmp eq ptr %13, null
  br i1 %.not48, label %22, label %21

21:                                               ; preds = %20
  tail call void (ptr, ptr, ...) @proto_item_append_text(ptr noundef %17, ptr noundef nonnull @.str.139, ptr noundef nonnull %13) #11
  br label %22

22:                                               ; preds = %21, %20
  %23 = load i32, ptr %8, align 4
  %24 = getelementptr inbounds nuw i8, ptr %8, i64 4
  %25 = load i16, ptr %24, align 4
  %26 = zext i16 %25 to i32
  %27 = getelementptr inbounds nuw i8, ptr %8, i64 6
  %28 = load i16, ptr %27, align 2
  %29 = zext i16 %28 to i32
  %30 = getelementptr inbounds nuw i8, ptr %8, i64 8
  %31 = load i8, ptr %30, align 4
  %32 = zext i8 %31 to i32
  %33 = getelementptr i8, ptr %8, i64 9
  %34 = load i8, ptr %33, align 1
  %35 = zext i8 %34 to i32
  %36 = getelementptr i8, ptr %8, i64 10
  %37 = load i8, ptr %36, align 2
  %38 = zext i8 %37 to i32
  %39 = getelementptr i8, ptr %8, i64 11
  %40 = load i8, ptr %39, align 1
  %41 = zext i8 %40 to i32
  %42 = getelementptr i8, ptr %8, i64 12
  %43 = load i8, ptr %42, align 4
  %44 = zext i8 %43 to i32
  %45 = getelementptr i8, ptr %8, i64 13
  %46 = load i8, ptr %45, align 1
  %47 = zext i8 %46 to i32
  %48 = getelementptr i8, ptr %8, i64 14
  %49 = load i8, ptr %48, align 2
  %50 = zext i8 %49 to i32
  %51 = getelementptr i8, ptr %8, i64 15
  %52 = load i8, ptr %51, align 1
  %53 = zext i8 %52 to i32
  tail call void (ptr, ptr, ...) @proto_item_append_text(ptr noundef %17, ptr noundef nonnull @.str.140, i32 noundef %23, i32 noundef %26, i32 noundef %29, i32 noundef %32, i32 noundef %35, i32 noundef %38, i32 noundef %41, i32 noundef %44, i32 noundef %47, i32 noundef %50, i32 noundef %53) #11
  br i1 %.not48, label %55, label %54

54:                                               ; preds = %22
  tail call void (ptr, ptr, ...) @proto_item_append_text(ptr noundef %17, ptr noundef nonnull @.str.141) #11
  br label %55

55:                                               ; preds = %54, %22
  %56 = phi ptr [ %13, %54 ], [ @.str.143, %22 ]
  %57 = getelementptr inbounds nuw i8, ptr %2, i64 8
  %58 = load ptr, ptr %57, align 8
  %59 = load ptr, ptr %14, align 8
  br i1 %.not, label %61, label %60

60:                                               ; preds = %55
  tail call void (ptr, i32, ptr, ...) @col_append_fstr(ptr noundef %58, i32 noundef 25, ptr noundef nonnull @.str.142, ptr noundef %59, i32 noundef %7, ptr noundef nonnull %56) #11
  br label %62

61:                                               ; preds = %55
  tail call void (ptr, i32, ptr, ...) @col_append_fstr(ptr noundef %58, i32 noundef 25, ptr noundef nonnull @.str.144, ptr noundef %59, ptr noundef nonnull %56) #11
  br label %62

62:                                               ; preds = %61, %60
  ret i32 %10
}